target datalayout = "e-m:e-p270:32:32-p271:32:32-p272:64:64-i64:64-i128:128-f80:128-n8:16:32:64-S128"
target triple = "x86_64-pc-linux-gnu"

%struct._match_case = type { ptr, ptr, ptr }

@PyExc_ValueError = external global ptr, align 8
@.str.66 = private unnamed_addr constant [43 x i8] c"field 'pattern' is required for match_case\00", align 1

; Function Attrs: nounwind uwtable
define hidden ptr @_PyAST_match_case(ptr noundef %0, ptr noundef %1, ptr noundef %2, ptr noundef %3) #0 {
  %5 = alloca ptr, align 8
  %6 = alloca ptr, align 8
  %7 = alloca ptr, align 8
  %8 = alloca ptr, align 8
  %9 = alloca ptr, align 8
  %10 = alloca ptr, align 8
  %11 = alloca i32, align 4
  store ptr %0, ptr %6, align 8, !tbaa !109
  store ptr %1, ptr %7, align 8, !tbaa !34
  store ptr %2, ptr %8, align 8, !tbaa !26
  store ptr %3, ptr %9, align 8, !tbaa !24
  call void @llvm.lifetime.start.p0(i64 8, ptr %10) #8
  %12 = load ptr, ptr %6, align 8, !tbaa !109
  %13 = icmp ne ptr %12, null
  br i1 %13, label %16, label %14

14:                                               ; preds = %4
  %15 = load ptr, ptr @PyExc_ValueError, align 8, !tbaa !13
  call void @PyErr_SetString(ptr noundef %15, ptr noundef @.str.66)
  store ptr null, ptr %5, align 8
  store i32 1, ptr %11, align 4
  br label %33

16:                                               ; preds = %4
  %17 = load ptr, ptr %9, align 8, !tbaa !24
  %18 = call ptr @_PyArena_Malloc(ptr noundef %17, i64 noundef 24)
  store ptr %18, ptr %10, align 8, !tbaa !111
  %19 = load ptr, ptr %10, align 8, !tbaa !111
  %20 = icmp ne ptr %19, null
  br i1 %20, label %22, label %21

21:                                               ; preds = %16
  store ptr null, ptr %5, align 8
  store i32 1, ptr %11, align 4
  br label %33

22:                                               ; preds = %16
  %23 = load ptr, ptr %6, align 8, !tbaa !109
  %24 = load ptr, ptr %10, align 8, !tbaa !111
  %25 = getelementptr inbounds nuw %struct._match_case, ptr %24, i32 0, i32 0
  store ptr %23, ptr %25, align 8, !tbaa !113
  %26 = load ptr, ptr %7, align 8, !tbaa !34
  %27 = load ptr, ptr %10, align 8, !tbaa !111
  %28 = getelementptr inbounds nuw %struct._match_case, ptr %27, i32 0, i32 1
  store ptr %26, ptr %28, align 8, !tbaa !115
  %29 = load ptr, ptr %8, align 8, !tbaa !26
  %30 = load ptr, ptr %10, align 8, !tbaa !111
  %31 = getelementptr inbounds nuw %struct._match_case, ptr %30, i32 0, i32 2
  store ptr %29, ptr %31, align 8, !tbaa !116
  %32 = load ptr, ptr %10, align 8, !tbaa !111
  store ptr %32, ptr %5, align 8
  store i32 1, ptr %11, align 4
  br label %33

33:                                               ; preds = %22, %21, %14
  call void @llvm.lifetime.end.p0(i64 8, ptr %10) #8
  %34 = load ptr, ptr %5, align 8
  ret ptr %34
}