; Function Attrs: nounwind uwtable
define hidden ptr @_PyAST_match_case(ptr noundef %0, ptr noundef %1, ptr noundef %2, ptr noundef %3) local_unnamed_addr #0 {
  %.not = icmp eq ptr %0, null
  br i1 %.not, label %5, label %7

5:                                                ; preds = %4
  %6 = load ptr, ptr @PyExc_ValueError, align 8, !tbaa !4
  tail call void @PyErr_SetString(ptr noundef %6, ptr noundef nonnull @.str.66) #8
  br label %12

7:                                                ; preds = %4
  %8 = tail call ptr @_PyArena_Malloc(ptr noundef %3, i64 noundef 24) #8
  %.not13 = icmp eq ptr %8, null
  br i1 %.not13, label %12, label %9

9:                                                ; preds = %7
  store ptr %0, ptr %8, align 8, !tbaa !78
  %10 = getelementptr inbounds nuw i8, ptr %8, i64 8
  store ptr %1, ptr %10, align 8, !tbaa !81
  %11 = getelementptr inbounds nuw i8, ptr %8, i64 16
  store ptr %2, ptr %11, align 8, !tbaa !82
  br label %12

12:                                               ; preds = %7, %9, %5
  %.0 = phi ptr [ %8, %9 ], [ null, %5 ], [ null, %7 ]
  ret ptr %.0
}